; Function Attrs: nounwind sspstrong uwtable
define hidden void @pm_buffer_insert(ptr noundef captures(none) %0, i64 noundef %1, ptr noundef readonly captures(none) %2, i64 noundef %3) local_unnamed_addr #4 {
  %5 = load i64, ptr %0, align 8, !tbaa !7
  %6 = icmp eq i64 %1, %5
  %7 = getelementptr inbounds nuw i8, ptr %0, i64 8
  %8 = load i64, ptr %7, align 8, !tbaa !14
  br i1 %6, label %9, label %27

9:                                                ; preds = %4
  %10 = add i64 %1, %3
  %11 = icmp ugt i64 %10, %8
  br i1 %11, label %12, label %._crit_edge.i.i

._crit_edge.i.i:                                  ; preds = %9
  %.phi.trans.insert.i.i = getelementptr inbounds nuw i8, ptr %0, i64 16
  %.pre.i.i = load ptr, ptr %.phi.trans.insert.i.i, align 8, !tbaa !15
  br label %25

12:                                               ; preds = %9
  %13 = icmp eq i64 %8, 0
  br i1 %13, label %14, label %15

14:                                               ; preds = %12
  store i64 1, ptr %7, align 8, !tbaa !14
  br label %15

15:                                               ; preds = %14, %12
  %.promoted.i.i.i = phi i64 [ 1, %14 ], [ %8, %12 ]
  %16 = icmp ugt i64 %10, %.promoted.i.i.i
  br i1 %16, label %.lr.ph.i.i.i, label %20

.lr.ph.i.i.i:                                     ; preds = %15, %.lr.ph.i.i.i
  %17 = phi i64 [ %18, %.lr.ph.i.i.i ], [ %.promoted.i.i.i, %15 ]
  %18 = shl i64 %17, 1
  %19 = icmp ugt i64 %10, %18
  br i1 %19, label %.lr.ph.i.i.i, label %._crit_edge.i.i.i, !llvm.loop !16

._crit_edge.i.i.i:                                ; preds = %.lr.ph.i.i.i
  store i64 %18, ptr %7, align 8, !tbaa !14
  br label %20

20:                                               ; preds = %._crit_edge.i.i.i, %15
  %.lcssa.i.i.i = phi i64 [ %18, %._crit_edge.i.i.i ], [ %.promoted.i.i.i, %15 ]
  %21 = getelementptr inbounds nuw i8, ptr %0, i64 16
  %22 = load ptr, ptr %21, align 8, !tbaa !15
  %23 = tail call ptr @realloc(ptr noundef %22, i64 noundef %.lcssa.i.i.i) #18
  store ptr %23, ptr %21, align 8, !tbaa !15
  %24 = icmp eq ptr %23, null
  br i1 %24, label %pm_buffer_append_string.exit, label %25

25:                                               ; preds = %20, %._crit_edge.i.i
  %26 = phi ptr [ %.pre.i.i, %._crit_edge.i.i ], [ %23, %20 ]
  store i64 %10, ptr %0, align 8, !tbaa !7
  br label %pm_buffer_append_string.exit.sink.split

27:                                               ; preds = %4
  %28 = add i64 %5, %3
  %29 = icmp ugt i64 %28, %8
  br i1 %29, label %30, label %._crit_edge.i

._crit_edge.i:                                    ; preds = %27
  %.phi.trans.insert.i = getelementptr inbounds nuw i8, ptr %0, i64 16
  %.pre.i = load ptr, ptr %.phi.trans.insert.i, align 8, !tbaa !15
  br label %43

30:                                               ; preds = %27
  %31 = icmp eq i64 %8, 0
  br i1 %31, label %32, label %33

32:                                               ; preds = %30
  store i64 1, ptr %7, align 8, !tbaa !14
  br label %33

33:                                               ; preds = %32, %30
  %.promoted.i.i = phi i64 [ 1, %32 ], [ %8, %30 ]
  %34 = icmp ugt i64 %28, %.promoted.i.i
  br i1 %34, label %.lr.ph.i.i, label %38

.lr.ph.i.i:                                       ; preds = %33, %.lr.ph.i.i
  %35 = phi i64 [ %36, %.lr.ph.i.i ], [ %.promoted.i.i, %33 ]
  %36 = shl i64 %35, 1
  %37 = icmp ugt i64 %28, %36
  br i1 %37, label %.lr.ph.i.i, label %._crit_edge.i.i18, !llvm.loop !16

._crit_edge.i.i18:                                ; preds = %.lr.ph.i.i
  store i64 %36, ptr %7, align 8, !tbaa !14
  br label %38

38:                                               ; preds = %._crit_edge.i.i18, %33
  %.lcssa.i.i = phi i64 [ %36, %._crit_edge.i.i18 ], [ %.promoted.i.i, %33 ]
  %39 = getelementptr inbounds nuw i8, ptr %0, i64 16
  %40 = load ptr, ptr %39, align 8, !tbaa !15
  %41 = tail call ptr @realloc(ptr noundef %40, i64 noundef %.lcssa.i.i) #18
  store ptr %41, ptr %39, align 8, !tbaa !15
  %42 = icmp eq ptr %41, null
  br i1 %42, label %pm_buffer_append_zeroes.exit, label %43

43:                                               ; preds = %38, %._crit_edge.i
  %44 = phi ptr [ %.pre.i, %._crit_edge.i ], [ %41, %38 ]
  store i64 %28, ptr %0, align 8, !tbaa !7
  %45 = getelementptr i8, ptr %44, i64 %5
  tail call void @llvm.memset.p0.i64(ptr noundef nonnull align 1 %45, i8 noundef 0, i64 noundef %3, i1 noundef false) #19
  %.phi.trans.insert = getelementptr inbounds nuw i8, ptr %0, i64 16
  %.pre = load ptr, ptr %.phi.trans.insert, align 8, !tbaa !15
  br label %pm_buffer_append_zeroes.exit

pm_buffer_append_zeroes.exit:                     ; preds = %38, %43
  %46 = phi ptr [ null, %38 ], [ %.pre, %43 ]
  %47 = getelementptr inbounds nuw i8, ptr %0, i64 16
  %48 = getelementptr i8, ptr %46, i64 %1
  %49 = getelementptr i8, ptr %48, i64 %3
  %50 = load i64, ptr %0, align 8, !tbaa !7
  %51 = add i64 %3, %1
  %52 = sub i64 %50, %51
  tail call void @llvm.memmove.p0.p0.i64(ptr noundef nonnull align 1 %49, ptr noundef nonnull align 1 %48, i64 noundef %52, i1 noundef false) #19
  %53 = load ptr, ptr %47, align 8, !tbaa !15
  br label %pm_buffer_append_string.exit.sink.split

pm_buffer_append_string.exit.sink.split:          ; preds = %pm_buffer_append_zeroes.exit, %25
  %.sink26 = phi ptr [ %26, %25 ], [ %53, %pm_buffer_append_zeroes.exit ]
  %54 = getelementptr i8, ptr %.sink26, i64 %1
  tail call void @llvm.memcpy.p0.p0.i64(ptr noundef nonnull align 1 %54, ptr noundef nonnull align 1 %2, i64 noundef %3, i1 noundef false) #19
  br label %pm_buffer_append_string.exit

pm_buffer_append_string.exit:                     ; preds = %pm_buffer_append_string.exit.sink.split, %20
  ret void
}